; ModuleID = '9/1166.c'
source_filename = "9/1166.c"
target datalayout = "e-m:e-p270:32:32-p271:32:32-p272:64:64-i64:64-f80:128-n8:16:32:64-S128"
target triple = "x86_64-pc-linux-gnu"

@.str = private unnamed_addr constant [3 x i8] c"%d\00", align 1
@.str.1 = private unnamed_addr constant [3 x i8] c"%s\00", align 1

; Function Attrs: noinline nounwind uwtable
define dso_local i32 @main() #0 {
  %1 = alloca i32, align 4
  %2 = alloca [100 x [10 x i8]], align 16
  %3 = alloca [100 x [10 x i8]], align 16
  %4 = alloca [100 x [10 x i8]], align 16
  %5 = alloca i32, align 4
  %6 = alloca i32, align 4
  %7 = alloca i32, align 4
  %8 = alloca i32, align 4
  %9 = alloca [100 x i32], align 16
  %10 = alloca [100 x i32], align 16
  %11 = alloca [100 x i32], align 16
  %12 = alloca [1 x [10 x i8]], align 1
  %13 = alloca i32, align 4
  %14 = alloca i32, align 4
  store i32 0, i32* %1, align 4
  store i32 0, i32* %7, align 4
  store i32 0, i32* %8, align 4
  %15 = call i32 (i8*, ...) @__isoc99_scanf(i8* getelementptr inbounds ([3 x i8], [3 x i8]* @.str, i64 0, i64 0), i32* %5)
  store i32 0, i32* %6, align 4
  br label %16

16:                                               ; preds = %74, %0
  %17 = load i32, i32* %6, align 4
  %18 = load i32, i32* %5, align 4
  %19 = icmp slt i32 %17, %18
  br i1 %19, label %20, label %77

20:                                               ; preds = %16
  %21 = load i32, i32* %6, align 4
  %22 = sext i32 %21 to i64
  %23 = getelementptr inbounds [100 x [10 x i8]], [100 x [10 x i8]]* %2, i64 0, i64 %22
  %24 = getelementptr inbounds [10 x i8], [10 x i8]* %23, i64 0, i64 0
  %25 = call i32 (i8*, ...) @__isoc99_scanf(i8* getelementptr inbounds ([3 x i8], [3 x i8]* @.str.1, i64 0, i64 0), i8* %24)
  %26 = load i32, i32* %6, align 4
  %27 = sext i32 %26 to i64
  %28 = getelementptr inbounds [100 x i32], [100 x i32]* %9, i64 0, i64 %27
  %29 = call i32 (i8*, ...) @__isoc99_scanf(i8* getelementptr inbounds ([3 x i8], [3 x i8]* @.str, i64 0, i64 0), i32* %28)
  %30 = load i32, i32* %6, align 4
  %31 = sext i32 %30 to i64
  %32 = getelementptr inbounds [100 x i32], [100 x i32]* %9, i64 0, i64 %31
  %33 = load i32, i32* %32, align 4
  %34 = icmp sge i32 %33, 60
  br i1 %34, label %35, label %54

35:                                               ; preds = %20
  %36 = load i32, i32* %6, align 4
  %37 = sext i32 %36 to i64
  %38 = getelementptr inbounds [100 x i32], [100 x i32]* %9, i64 0, i64 %37
  %39 = load i32, i32* %38, align 4
  %40 = load i32, i32* %7, align 4
  %41 = sext i32 %40 to i64
  %42 = getelementptr inbounds [100 x i32], [100 x i32]* %10, i64 0, i64 %41
  store i32 %39, i32* %42, align 4
  %43 = load i32, i32* %7, align 4
  %44 = sext i32 %43 to i64
  %45 = getelementptr inbounds [100 x [10 x i8]], [100 x [10 x i8]]* %3, i64 0, i64 %44
  %46 = getelementptr inbounds [10 x i8], [10 x i8]* %45, i64 0, i64 0
  %47 = load i32, i32* %6, align 4
  %48 = sext i32 %47 to i64
  %49 = getelementptr inbounds [100 x [10 x i8]], [100 x [10 x i8]]* %2, i64 0, i64 %48
  %50 = getelementptr inbounds [10 x i8], [10 x i8]* %49, i64 0, i64 0
  %51 = call i8* @strcpy(i8* %46, i8* %50) #3
  %52 = load i32, i32* %7, align 4
  %53 = add nsw i32 %52, 1
  store i32 %53, i32* %7, align 4
  br label %73

54:                                               ; preds = %20
  %55 = load i32, i32* %6, align 4
  %56 = sext i32 %55 to i64
  %57 = getelementptr inbounds [100 x i32], [100 x i32]* %9, i64 0, i64 %56
  %58 = load i32, i32* %57, align 4
  %59 = load i32, i32* %8, align 4
  %60 = sext i32 %59 to i64
  %61 = getelementptr inbounds [100 x i32], [100 x i32]* %11, i64 0, i64 %60
  store i32 %58, i32* %61, align 4
  %62 = load i32, i32* %8, align 4
  %63 = sext i32 %62 to i64
  %64 = getelementptr inbounds [100 x [10 x i8]], [100 x [10 x i8]]* %4, i64 0, i64 %63
  %65 = getelementptr inbounds [10 x i8], [10 x i8]* %64, i64 0, i64 0
  %66 = load i32, i32* %6, align 4
  %67 = sext i32 %66 to i64
  %68 = getelementptr inbounds [100 x [10 x i8]], [100 x [10 x i8]]* %2, i64 0, i64 %67
  %69 = getelementptr inbounds [10 x i8], [10 x i8]* %68, i64 0, i64 0
  %70 = call i8* @strcpy(i8* %65, i8* %69) #3
  %71 = load i32, i32* %8, align 4
  %72 = add nsw i32 %71, 1
  store i32 %72, i32* %8, align 4
  br label %73

73:                                               ; preds = %54, %35
  br label %74

74:                                               ; preds = %73
  %75 = load i32, i32* %6, align 4
  %76 = add nsw i32 %75, 1
  store i32 %76, i32* %6, align 4
  br label %16

77:                                               ; preds = %16
  store i32 1, i32* %14, align 4
  br label %78

78:                                               ; preds = %148, %77
  %79 = load i32, i32* %14, align 4
  %80 = load i32, i32* %7, align 4
  %81 = icmp sle i32 %79, %80
  br i1 %81, label %82, label %151

82:                                               ; preds = %78
  store i32 0, i32* %6, align 4
  br label %83

83:                                               ; preds = %144, %82
  %84 = load i32, i32* %6, align 4
  %85 = load i32, i32* %7, align 4
  %86 = load i32, i32* %14, align 4
  %87 = sub nsw i32 %85, %86
  %88 = icmp slt i32 %84, %87
  br i1 %88, label %89, label %147

89:                                               ; preds = %83
  %90 = load i32, i32* %6, align 4
  %91 = sext i32 %90 to i64
  %92 = getelementptr inbounds [100 x i32], [100 x i32]* %10, i64 0, i64 %91
  %93 = load i32, i32* %92, align 4
  %94 = load i32, i32* %6, align 4
  %95 = add nsw i32 %94, 1
  %96 = sext i32 %95 to i64
  %97 = getelementptr inbounds [100 x i32], [100 x i32]* %10, i64 0, i64 %96
  %98 = load i32, i32* %97, align 4
  %99 = icmp slt i32 %93, %98
  br i1 %99, label %100, label %143

100:                                              ; preds = %89
  %101 = getelementptr inbounds [1 x [10 x i8]], [1 x [10 x i8]]* %12, i64 0, i64 0
  %102 = getelementptr inbounds [10 x i8], [10 x i8]* %101, i64 0, i64 0
  %103 = load i32, i32* %6, align 4
  %104 = sext i32 %103 to i64
  %105 = getelementptr inbounds [100 x [10 x i8]], [100 x [10 x i8]]* %3, i64 0, i64 %104
  %106 = getelementptr inbounds [10 x i8], [10 x i8]* %105, i64 0, i64 0
  %107 = call i8* @strcpy(i8* %102, i8* %106) #3
  %108 = load i32, i32* %6, align 4
  %109 = sext i32 %108 to i64
  %110 = getelementptr inbounds [100 x [10 x i8]], [100 x [10 x i8]]* %3, i64 0, i64 %109
  %111 = getelementptr inbounds [10 x i8], [10 x i8]* %110, i64 0, i64 0
  %112 = load i32, i32* %6, align 4
  %113 = add nsw i32 %112, 1
  %114 = sext i32 %113 to i64
  %115 = getelementptr inbounds [100 x [10 x i8]], [100 x [10 x i8]]* %3, i64 0, i64 %114
  %116 = getelementptr inbounds [10 x i8], [10 x i8]* %115, i64 0, i64 0
  %117 = call i8* @strcpy(i8* %111, i8* %116) #3
  %118 = load i32, i32* %6, align 4
  %119 = add nsw i32 %118, 1
  %120 = sext i32 %119 to i64
  %121 = getelementptr inbounds [100 x [10 x i8]], [100 x [10 x i8]]* %3, i64 0, i64 %120
  %122 = getelementptr inbounds [10 x i8], [10 x i8]* %121, i64 0, i64 0
  %123 = getelementptr inbounds [1 x [10 x i8]], [1 x [10 x i8]]* %12, i64 0, i64 0
  %124 = getelementptr inbounds [10 x i8], [10 x i8]* %123, i64 0, i64 0
  %125 = call i8* @strcpy(i8* %122, i8* %124) #3
  %126 = load i32, i32* %6, align 4
  %127 = sext i32 %126 to i64
  %128 = getelementptr inbounds [100 x i32], [100 x i32]* %10, i64 0, i64 %127
  %129 = load i32, i32* %128, align 4
  store i32 %129, i32* %13, align 4
  %130 = load i32, i32* %6, align 4
  %131 = add nsw i32 %130, 1
  %132 = sext i32 %131 to i64
  %133 = getelementptr inbounds [100 x i32], [100 x i32]* %10, i64 0, i64 %132
  %134 = load i32, i32* %133, align 4
  %135 = load i32, i32* %6, align 4
  %136 = sext i32 %135 to i64
  %137 = getelementptr inbounds [100 x i32], [100 x i32]* %10, i64 0, i64 %136
  store i32 %134, i32* %137, align 4
  %138 = load i32, i32* %13, align 4
  %139 = load i32, i32* %6, align 4
  %140 = add nsw i32 %139, 1
  %141 = sext i32 %140 to i64
  %142 = getelementptr inbounds [100 x i32], [100 x i32]* %10, i64 0, i64 %141
  store i32 %138, i32* %142, align 4
  br label %143

143:                                              ; preds = %100, %89
  br label %144

144:                                              ; preds = %143
  %145 = load i32, i32* %6, align 4
  %146 = add nsw i32 %145, 1
  store i32 %146, i32* %6, align 4
  br label %83

147:                                              ; preds = %83
  br label %148

148:                                              ; preds = %147
  %149 = load i32, i32* %14, align 4
  %150 = add nsw i32 %149, 1
  store i32 %150, i32* %14, align 4
  br label %78

151:                                              ; preds = %78
  store i32 0, i32* %6, align 4
  br label %152

152:                                              ; preds = %162, %151
  %153 = load i32, i32* %6, align 4
  %154 = load i32, i32* %7, align 4
  %155 = icmp slt i32 %153, %154
  br i1 %155, label %156, label %165

156:                                              ; preds = %152
  %157 = load i32, i32* %6, align 4
  %158 = sext i32 %157 to i64
  %159 = getelementptr inbounds [100 x [10 x i8]], [100 x [10 x i8]]* %3, i64 0, i64 %158
  %160 = getelementptr inbounds [10 x i8], [10 x i8]* %159, i64 0, i64 0
  %161 = call i32 @puts(i8* %160)
  br label %162

162:                                              ; preds = %156
  %163 = load i32, i32* %6, align 4
  %164 = add nsw i32 %163, 1
  store i32 %164, i32* %6, align 4
  br label %152

165:                                              ; preds = %152
  store i32 0, i32* %6, align 4
  br label %166

166:                                              ; preds = %176, %165
  %167 = load i32, i32* %6, align 4
  %168 = load i32, i32* %8, align 4
  %169 = icmp slt i32 %167, %168
  br i1 %169, label %170, label %179

170:                                              ; preds = %166
  %171 = load i32, i32* %6, align 4
  %172 = sext i32 %171 to i64
  %173 = getelementptr inbounds [100 x [10 x i8]], [100 x [10 x i8]]* %4, i64 0, i64 %172
  %174 = getelementptr inbounds [10 x i8], [10 x i8]* %173, i64 0, i64 0
  %175 = call i32 @puts(i8* %174)
  br label %176

176:                                              ; preds = %170
  %177 = load i32, i32* %6, align 4
  %178 = add nsw i32 %177, 1
  store i32 %178, i32* %6, align 4
  br label %166

179:                                              ; preds = %166
  ret i32 0
}

declare dso_local i32 @__isoc99_scanf(i8*, ...) #1

; Function Attrs: nounwind
declare dso_local i8* @strcpy(i8*, i8*) #2

declare dso_local i32 @puts(i8*) #1


!llvm.module.flags = !{!0}
!llvm.ident = !{!1}

!0 = !{i32 1, !"wchar_size", i32 4}
!1 = !{!"clang version 10.0.0-4ubuntu1 "}
